; Function Attrs: nounwind uwtable
define ptr @l_Lean_SMap_findD___rarg(ptr noundef %0, ptr noundef %1, ptr noundef %2, ptr noundef %3, ptr noundef %4) local_unnamed_addr #0 {
  %6 = tail call ptr @l_Lean_SMap_find_x3f___rarg(ptr noundef %0, ptr noundef %1, ptr noundef %2, ptr noundef %3)
  %7 = ptrtoint ptr %6 to i64
  %8 = and i64 %7, 1
  %.not.i13 = icmp eq i64 %8, 0
  br i1 %.not.i13, label %12, label %9

9:                                                ; preds = %5
  %10 = lshr i64 %7, 1
  %11 = trunc i64 %10 to i32
  br label %lean_obj_tag.exit

12:                                               ; preds = %5
  %13 = getelementptr i8, ptr %6, i64 4
  %.val.i = load i32, ptr %13, align 4
  %14 = lshr i32 %.val.i, 24
  br label %lean_obj_tag.exit

lean_obj_tag.exit:                                ; preds = %9, %12
  %.0.i = phi i32 [ %11, %9 ], [ %14, %12 ]
  %15 = icmp eq i32 %.0.i, 0
  br i1 %15, label %16, label %25

16:                                               ; preds = %lean_obj_tag.exit
  %17 = ptrtoint ptr %4 to i64
  %18 = and i64 %17, 1
  %.not20 = icmp eq i64 %18, 0
  br i1 %.not20, label %19, label %lean_inc.exit12

19:                                               ; preds = %16
  %.val.i14 = load i32, ptr %4, align 4, !tbaa !10
  %20 = icmp sgt i32 %.val.i14, 0
  br i1 %20, label %21, label %23, !prof !15

21:                                               ; preds = %19
  %22 = add nuw i32 %.val.i14, 1
  store i32 %22, ptr %4, align 4, !tbaa !10
  br label %lean_inc.exit12

23:                                               ; preds = %19
  %.not.i15 = icmp eq i32 %.val.i14, 0
  br i1 %.not.i15, label %lean_inc.exit12, label %24

24:                                               ; preds = %23
  tail call void @lean_inc_ref_cold(ptr noundef nonnull %4) #3
  br label %lean_inc.exit12

25:                                               ; preds = %lean_obj_tag.exit
  %26 = getelementptr inbounds nuw i8, ptr %6, i64 8
  %27 = load ptr, ptr %26, align 8, !tbaa !4
  %28 = ptrtoint ptr %27 to i64
  %29 = and i64 %28, 1
  %.not = icmp eq i64 %29, 0
  br i1 %.not, label %30, label %lean_inc.exit

30:                                               ; preds = %25
  %.val.i16 = load i32, ptr %27, align 4, !tbaa !10
  %31 = icmp sgt i32 %.val.i16, 0
  br i1 %31, label %32, label %34, !prof !15

32:                                               ; preds = %30
  %33 = add nuw i32 %.val.i16, 1
  store i32 %33, ptr %27, align 4, !tbaa !10
  br label %lean_inc.exit

34:                                               ; preds = %30
  %.not.i17 = icmp eq i32 %.val.i16, 0
  br i1 %.not.i17, label %lean_inc.exit, label %35

35:                                               ; preds = %34
  tail call void @lean_inc_ref_cold(ptr noundef nonnull %27) #3
  br label %lean_inc.exit

lean_inc.exit:                                    ; preds = %35, %34, %32, %25
  br i1 %.not.i13, label %36, label %lean_inc.exit12

36:                                               ; preds = %lean_inc.exit
  %37 = load i32, ptr %6, align 4, !tbaa !10
  %38 = icmp sgt i32 %37, 1
  br i1 %38, label %39, label %41, !prof !15

39:                                               ; preds = %36
  %40 = add nsw i32 %37, -1
  store i32 %40, ptr %6, align 4, !tbaa !10
  br label %lean_inc.exit12

41:                                               ; preds = %36
  %.not.i = icmp eq i32 %37, 0
  br i1 %.not.i, label %lean_inc.exit12, label %42

42:                                               ; preds = %41
  tail call void @lean_dec_ref_cold(ptr noundef nonnull %6) #3
  br label %lean_inc.exit12

lean_inc.exit12:                                  ; preds = %lean_inc.exit, %39, %41, %42, %16, %21, %23, %24
  %.0 = phi ptr [ %4, %24 ], [ %4, %23 ], [ %4, %21 ], [ %4, %16 ], [ %27, %42 ], [ %27, %41 ], [ %27, %39 ], [ %27, %lean_inc.exit ]
  ret ptr %.0
}